; Function Attrs: nounwind uwtable
define internal fastcc range(i32 -1, 1) i32 @git_default_attr_config(ptr noundef %0, ptr noundef %1) unnamed_addr #0 {
  %3 = tail call i32 @strcmp(ptr noundef nonnull dereferenceable(1) %0, ptr noundef nonnull dereferenceable(10) @.str.195) #29
  %.not = icmp eq i32 %3, 0
  br i1 %.not, label %4, label %git_config_string.exit

4:                                                ; preds = %2
  %5 = load ptr, ptr @git_attr_tree, align 8, !tbaa !17
  tail call void @free(ptr noundef %5) #30
  store ptr null, ptr @git_attr_tree, align 8, !tbaa !17
  %.not.i = icmp eq ptr %1, null
  br i1 %.not.i, label %6, label %11

6:                                                ; preds = %4
  %7 = load i32, ptr @git_gettext_enabled, align 4, !tbaa !14
  %.not4.i.i.i = icmp eq i32 %7, 0
  br i1 %.not4.i.i.i, label %config_error_nonbool.exit.i, label %8

8:                                                ; preds = %6
  %9 = tail call ptr @dcgettext(ptr noundef null, ptr noundef nonnull @.str.74, i32 noundef 5) #30
  br label %config_error_nonbool.exit.i

config_error_nonbool.exit.i:                      ; preds = %8, %6
  %.0.i.i.i = phi ptr [ %9, %8 ], [ @.str.74, %6 ]
  %10 = tail call i32 (ptr, ...) @error(ptr noundef %.0.i.i.i, ptr noundef nonnull %0) #30
  br label %git_config_string.exit

11:                                               ; preds = %4
  %12 = tail call ptr @xstrdup(ptr noundef nonnull %1) #30
  store ptr %12, ptr @git_attr_tree, align 8, !tbaa !17
  br label %git_config_string.exit

git_config_string.exit:                           ; preds = %11, %config_error_nonbool.exit.i, %2
  %.0 = phi i32 [ 0, %2 ], [ 0, %11 ], [ -1, %config_error_nonbool.exit.i ]
  ret i32 %.0
}